; Function Attrs: mustprogress nofree norecurse nosync nounwind willreturn memory(argmem: read) uwtable
define noundef i32 @_ZNK3url6Parsed6LengthEv(ptr noundef nonnull readonly align 8 captures(none) dereferenceable(72) %0) local_unnamed_addr #4 align 2 {
  %2 = getelementptr inbounds nuw i8, ptr %0, i64 60
  %3 = load i32, ptr %2, align 4, !tbaa !8
  %.not = icmp eq i32 %3, -1
  br i1 %.not, label %8, label %4

4:                                                ; preds = %1
  %5 = getelementptr inbounds nuw i8, ptr %0, i64 56
  %6 = load i32, ptr %5, align 8, !tbaa !3
  %7 = add nsw i32 %6, %3
  br label %_ZNK3url6Parsed21CountCharactersBeforeENS0_13ComponentTypeEb.exit

8:                                                ; preds = %1
  %9 = getelementptr inbounds nuw i8, ptr %0, i64 4
  %10 = load i32, ptr %9, align 4, !tbaa !8
  %.not26.i = icmp eq i32 %10, -1
  %11 = load i32, ptr %0, align 8
  %12 = add i32 %10, 1
  %13 = add i32 %12, %11
  %.0.i = select i1 %.not26.i, i32 0, i32 %13
  %14 = getelementptr inbounds nuw i8, ptr %0, i64 8
  %15 = getelementptr inbounds nuw i8, ptr %0, i64 12
  %16 = load i32, ptr %15, align 4, !tbaa !8
  %.not27.i = icmp eq i32 %16, -1
  %17 = load i32, ptr %14, align 8
  %18 = add nuw i32 %16, 1
  %19 = add i32 %18, %17
  %.1.i = select i1 %.not27.i, i32 %.0.i, i32 %19
  %20 = getelementptr inbounds nuw i8, ptr %0, i64 16
  %21 = getelementptr inbounds nuw i8, ptr %0, i64 20
  %22 = load i32, ptr %21, align 4, !tbaa !8
  %.not28.i = icmp eq i32 %22, -1
  %23 = load i32, ptr %20, align 8
  %24 = add nuw i32 %22, 1
  %25 = add i32 %24, %23
  %.2.i = select i1 %.not28.i, i32 %.1.i, i32 %25
  %26 = getelementptr inbounds nuw i8, ptr %0, i64 24
  %27 = getelementptr inbounds nuw i8, ptr %0, i64 28
  %28 = load i32, ptr %27, align 4, !tbaa !8
  %.not29.i = icmp eq i32 %28, -1
  %29 = load i32, ptr %26, align 8
  %30 = add nsw i32 %29, %28
  %.3.i = select i1 %.not29.i, i32 %.2.i, i32 %30
  %31 = getelementptr inbounds nuw i8, ptr %0, i64 32
  %32 = getelementptr inbounds nuw i8, ptr %0, i64 36
  %33 = load i32, ptr %32, align 4, !tbaa !8
  %.not30.i = icmp eq i32 %33, -1
  %34 = load i32, ptr %31, align 8
  %35 = add nsw i32 %34, %33
  %.4.i = select i1 %.not30.i, i32 %.3.i, i32 %35
  %36 = getelementptr inbounds nuw i8, ptr %0, i64 40
  %37 = getelementptr inbounds nuw i8, ptr %0, i64 44
  %38 = load i32, ptr %37, align 4, !tbaa !8
  %.not.i = icmp eq i32 %38, -1
  %39 = load i32, ptr %36, align 8
  %40 = add nsw i32 %39, %38
  %.5.i = select i1 %.not.i, i32 %.4.i, i32 %40
  %41 = getelementptr inbounds nuw i8, ptr %0, i64 48
  %42 = getelementptr inbounds nuw i8, ptr %0, i64 52
  %43 = load i32, ptr %42, align 4, !tbaa !8
  %.not31.i = icmp eq i32 %43, -1
  %44 = load i32, ptr %41, align 8
  %45 = add nsw i32 %44, %43
  %.6.i = select i1 %.not31.i, i32 %.5.i, i32 %45
  br label %_ZNK3url6Parsed21CountCharactersBeforeENS0_13ComponentTypeEb.exit

_ZNK3url6Parsed21CountCharactersBeforeENS0_13ComponentTypeEb.exit: ; preds = %8, %4
  %.0 = phi i32 [ %7, %4 ], [ %.6.i, %8 ]
  ret i32 %.0
}